target datalayout = "e-m:e-p270:32:32-p271:32:32-p272:64:64-i64:64-i128:128-f80:128-n8:16:32:64-S128"
target triple = "x86_64-pc-linux-gnu"

%"class.std::basic_ostream" = type { ptr, %"class.std::basic_ios" }
%"class.std::basic_ios" = type { %"class.std::ios_base", ptr, i8, i8, ptr, ptr, ptr, ptr }
%"class.std::ios_base" = type { ptr, i64, i64, i32, i32, i32, ptr, %"struct.std::ios_base::_Words", [8 x %"struct.std::ios_base::_Words"], i32, ptr, %"class.std::locale" }
%"struct.std::ios_base::_Words" = type { ptr, i64 }
%"class.std::locale" = type { ptr }
%"class.cv::bioinspired::RetinaColor" = type <{ ptr, %"class.cv::bioinspired::BasicRetinaFilter", i32, i8, [3 x i8], float, [4 x i8], ptr, ptr, %"class.std::valarray.0", %"class.std::valarray", %"class.std::valarray", %"class.std::valarray", %"class.std::valarray", %"class.std::valarray", %"class.std::valarray", %"class.std::valarray", float, float, float, i8, [3 x i8] }>
%"class.cv::bioinspired::BasicRetinaFilter" = type { %"class.cv::bioinspired::TemplateBuffer", %"class.std::valarray", i32, i32, %"class.std::valarray", %"class.std::valarray", %"class.std::valarray", float, float, float, float, float, float, float, float }
%"class.cv::bioinspired::TemplateBuffer" = type { ptr, %"class.std::valarray", i64, i64, i64, i64, i64 }
%"class.std::valarray.0" = type { i64, ptr }
%"class.std::valarray" = type { i64, ptr }

@_ZSt4cerr = external global %"class.std::basic_ostream", align 8
@.str.3 = private unnamed_addr constant [116 x i8] c"RetinaColor::applyKrauskopfLMS2Acr1cr2Transform: input buffer does not match retina buffer size, conversion aborted\00", align 1

; Function Attrs: inlinehint mustprogress nounwind uwtable
define linkonce_odr noundef i32 @_ZStorSt12_Ios_IostateS_(i32 noundef %0, i32 noundef %1) #7 comdat {
  %3 = alloca i32, align 4
  %4 = alloca i32, align 4
  store i32 %0, ptr %3, align 4, !tbaa !142
  store i32 %1, ptr %4, align 4, !tbaa !142
  %5 = load i32, ptr %3, align 4, !tbaa !142
  %6 = load i32, ptr %4, align 4, !tbaa !142
  %7 = or i32 %5, %6
  ret i32 %7
}

; Function Attrs: mustprogress nounwind uwtable
define available_externally noundef i32 @_ZNKSt9basic_iosIcSt11char_traitsIcEE7rdstateEv(ptr noundef nonnull align 8 dereferenceable(264) %0) #8 align 2 {
  %2 = alloca ptr, align 8
  store ptr %0, ptr %2, align 8, !tbaa !140
  %3 = load ptr, ptr %2, align 8
  %4 = getelementptr inbounds nuw %"class.std::ios_base", ptr %3, i32 0, i32 5
  %5 = load i32, ptr %4, align 8, !tbaa !144
  ret i32 %5
}

; Function Attrs: inlinehint mustprogress nounwind uwtable
define linkonce_odr hidden noundef nonnull align 4 dereferenceable(4) ptr @_ZNSt8valarrayIfEixEm(ptr noundef nonnull align 8 dereferenceable(16) %0, i64 noundef %1) #7 comdat align 2 {
  %3 = alloca ptr, align 8
  %4 = alloca i64, align 8
  store ptr %0, ptr %3, align 8, !tbaa !36
  store i64 %1, ptr %4, align 8, !tbaa !33
  %5 = load ptr, ptr %3, align 8
  %6 = getelementptr inbounds nuw %"class.std::valarray", ptr %5, i32 0, i32 1
  %7 = load ptr, ptr %6, align 8, !tbaa !38
  %8 = load i64, ptr %4, align 8, !tbaa !33
  %9 = getelementptr inbounds nuw float, ptr %7, i64 %8
  ret ptr %9
}

; Function Attrs: inlinehint mustprogress nounwind uwtable
define linkonce_odr hidden noundef ptr @_ZN2cv8get_dataIfEEPKT_RKSt8valarrayIS1_E(ptr noundef nonnull align 8 dereferenceable(16) %0) #7 comdat {
  %2 = alloca ptr, align 8
  store ptr %0, ptr %2, align 8, !tbaa !36
  %3 = load ptr, ptr %2, align 8, !tbaa !36
  %4 = call noundef nonnull align 4 dereferenceable(4) ptr @_ZNSt8valarrayIfEixEm(ptr noundef nonnull align 8 dereferenceable(16) %3, i64 noundef 0) #3
  ret ptr %4
}

; Function Attrs: mustprogress nounwind uwtable
define linkonce_odr hidden noundef i64 @_ZNSt11char_traitsIcE6lengthEPKc(ptr noundef %0) #8 comdat align 2 {
  %2 = alloca ptr, align 8
  store ptr %0, ptr %2, align 8, !tbaa !53
  %3 = load ptr, ptr %2, align 8, !tbaa !53
  %4 = call i64 @strlen(ptr noundef %3) #3
  ret i64 %4
}

; Function Attrs: mustprogress uwtable
define available_externally void @_ZNSt9basic_iosIcSt11char_traitsIcEE8setstateESt12_Ios_Iostate(ptr noundef nonnull align 8 dereferenceable(264) %0, i32 noundef %1) #4 align 2 {
  %3 = alloca ptr, align 8
  %4 = alloca i32, align 4
  store ptr %0, ptr %3, align 8, !tbaa !140
  store i32 %1, ptr %4, align 4, !tbaa !142
  %5 = load ptr, ptr %3, align 8
  %6 = call noundef i32 @_ZNKSt9basic_iosIcSt11char_traitsIcEE7rdstateEv(ptr noundef nonnull align 8 dereferenceable(264) %5)
  %7 = load i32, ptr %4, align 4, !tbaa !142
  %8 = call noundef i32 @_ZStorSt12_Ios_IostateS_(i32 noundef %6, i32 noundef %7)
  call void @_ZNSt9basic_iosIcSt11char_traitsIcEE5clearESt12_Ios_Iostate(ptr noundef nonnull align 8 dereferenceable(264) %5, i32 noundef %8)
  ret void
}

; Function Attrs: mustprogress uwtable
define hidden void @_ZN2cv11bioinspired11RetinaColor31_applyImageColorSpaceConversionERKSt8valarrayIfERS3_PKf(ptr noundef nonnull align 8 dereferenceable(349) %0, ptr noundef nonnull align 8 dereferenceable(16) %1, ptr noundef nonnull align 8 dereferenceable(16) %2, ptr noundef %3) #4 align 2 {
  %5 = alloca ptr, align 8
  %6 = alloca ptr, align 8
  %7 = alloca ptr, align 8
  %8 = alloca ptr, align 8
  %9 = alloca i32, align 4
  %10 = alloca i32, align 4
  %11 = alloca ptr, align 8
  %12 = alloca ptr, align 8
  %13 = alloca i32, align 4
  %14 = alloca float, align 4
  %15 = alloca float, align 4
  %16 = alloca float, align 4
  store ptr %0, ptr %5, align 8, !tbaa !3
  store ptr %1, ptr %6, align 8, !tbaa !36
  store ptr %2, ptr %7, align 8, !tbaa !36
  store ptr %3, ptr %8, align 8, !tbaa !39
  call void @llvm.lifetime.start.p0(i64 4, ptr %9) #3
  %17 = load ptr, ptr %6, align 8, !tbaa !36
  %18 = call noundef i64 @_ZNKSt8valarrayIfE4sizeEv(ptr noundef nonnull align 8 dereferenceable(16) %17)
  %19 = udiv i64 %18, 3
  %20 = trunc i64 %19 to i32
  store i32 %20, ptr %9, align 4, !tbaa !8
  call void @llvm.lifetime.start.p0(i64 4, ptr %10) #3
  %21 = load ptr, ptr %6, align 8, !tbaa !36
  %22 = call noundef i64 @_ZNKSt8valarrayIfE4sizeEv(ptr noundef nonnull align 8 dereferenceable(16) %21)
  %23 = mul i64 2, %22
  %24 = udiv i64 %23, 3
  %25 = trunc i64 %24 to i32
  store i32 %25, ptr %10, align 4, !tbaa !8
  call void @llvm.lifetime.start.p0(i64 8, ptr %11) #3
  %26 = load ptr, ptr %6, align 8, !tbaa !36
  %27 = call noundef ptr @_ZN2cv8get_dataIfEEPKT_RKSt8valarrayIS1_E(ptr noundef nonnull align 8 dereferenceable(16) %26)
  store ptr %27, ptr %11, align 8, !tbaa !39
  call void @llvm.lifetime.start.p0(i64 8, ptr %12) #3
  %28 = load ptr, ptr %7, align 8, !tbaa !36
  %29 = call noundef nonnull align 4 dereferenceable(4) ptr @_ZNSt8valarrayIfEixEm(ptr noundef nonnull align 8 dereferenceable(16) %28, i64 noundef 0) #3
  store ptr %29, ptr %12, align 8, !tbaa !39
  call void @llvm.lifetime.start.p0(i64 4, ptr %13) #3
  store i32 0, ptr %13, align 4, !tbaa !8
  br label %30

30:                                               ; preds = %120, %4
  %31 = load i32, ptr %13, align 4, !tbaa !8
  %32 = load i32, ptr %9, align 4, !tbaa !8
  %33 = icmp ult i32 %31, %32
  br i1 %33, label %35, label %34

34:                                               ; preds = %30
  call void @llvm.lifetime.end.p0(i64 4, ptr %13) #3
  br label %127

35:                                               ; preds = %30
  call void @llvm.lifetime.start.p0(i64 4, ptr %14) #3
  %36 = load ptr, ptr %11, align 8, !tbaa !39
  %37 = load float, ptr %36, align 4, !tbaa !30
  %38 = load ptr, ptr %8, align 8, !tbaa !39
  %39 = getelementptr inbounds float, ptr %38, i64 0
  %40 = load float, ptr %39, align 4, !tbaa !30
  %41 = load ptr, ptr %11, align 8, !tbaa !39
  %42 = load i32, ptr %9, align 4, !tbaa !8
  %43 = zext i32 %42 to i64
  %44 = getelementptr inbounds nuw float, ptr %41, i64 %43
  %45 = load float, ptr %44, align 4, !tbaa !30
  %46 = load ptr, ptr %8, align 8, !tbaa !39
  %47 = getelementptr inbounds float, ptr %46, i64 1
  %48 = load float, ptr %47, align 4, !tbaa !30
  %49 = fmul float %45, %48
  %50 = call float @llvm.fmuladd.f32(float %37, float %40, float %49)
  %51 = load ptr, ptr %11, align 8, !tbaa !39
  %52 = load i32, ptr %10, align 4, !tbaa !8
  %53 = zext i32 %52 to i64
  %54 = getelementptr inbounds nuw float, ptr %51, i64 %53
  %55 = load float, ptr %54, align 4, !tbaa !30
  %56 = load ptr, ptr %8, align 8, !tbaa !39
  %57 = getelementptr inbounds float, ptr %56, i64 2
  %58 = load float, ptr %57, align 4, !tbaa !30
  %59 = call float @llvm.fmuladd.f32(float %55, float %58, float %50)
  store float %59, ptr %14, align 4, !tbaa !30
  call void @llvm.lifetime.start.p0(i64 4, ptr %15) #3
  %60 = load ptr, ptr %11, align 8, !tbaa !39
  %61 = load float, ptr %60, align 4, !tbaa !30
  %62 = load ptr, ptr %8, align 8, !tbaa !39
  %63 = getelementptr inbounds float, ptr %62, i64 3
  %64 = load float, ptr %63, align 4, !tbaa !30
  %65 = load ptr, ptr %11, align 8, !tbaa !39
  %66 = load i32, ptr %9, align 4, !tbaa !8
  %67 = zext i32 %66 to i64
  %68 = getelementptr inbounds nuw float, ptr %65, i64 %67
  %69 = load float, ptr %68, align 4, !tbaa !30
  %70 = load ptr, ptr %8, align 8, !tbaa !39
  %71 = getelementptr inbounds float, ptr %70, i64 4
  %72 = load float, ptr %71, align 4, !tbaa !30
  %73 = fmul float %69, %72
  %74 = call float @llvm.fmuladd.f32(float %61, float %64, float %73)
  %75 = load ptr, ptr %11, align 8, !tbaa !39
  %76 = load i32, ptr %10, align 4, !tbaa !8
  %77 = zext i32 %76 to i64
  %78 = getelementptr inbounds nuw float, ptr %75, i64 %77
  %79 = load float, ptr %78, align 4, !tbaa !30
  %80 = load ptr, ptr %8, align 8, !tbaa !39
  %81 = getelementptr inbounds float, ptr %80, i64 5
  %82 = load float, ptr %81, align 4, !tbaa !30
  %83 = call float @llvm.fmuladd.f32(float %79, float %82, float %74)
  store float %83, ptr %15, align 4, !tbaa !30
  call void @llvm.lifetime.start.p0(i64 4, ptr %16) #3
  %84 = load ptr, ptr %11, align 8, !tbaa !39
  %85 = load float, ptr %84, align 4, !tbaa !30
  %86 = load ptr, ptr %8, align 8, !tbaa !39
  %87 = getelementptr inbounds float, ptr %86, i64 6
  %88 = load float, ptr %87, align 4, !tbaa !30
  %89 = load ptr, ptr %11, align 8, !tbaa !39
  %90 = load i32, ptr %9, align 4, !tbaa !8
  %91 = zext i32 %90 to i64
  %92 = getelementptr inbounds nuw float, ptr %89, i64 %91
  %93 = load float, ptr %92, align 4, !tbaa !30
  %94 = load ptr, ptr %8, align 8, !tbaa !39
  %95 = getelementptr inbounds float, ptr %94, i64 7
  %96 = load float, ptr %95, align 4, !tbaa !30
  %97 = fmul float %93, %96
  %98 = call float @llvm.fmuladd.f32(float %85, float %88, float %97)
  %99 = load ptr, ptr %11, align 8, !tbaa !39
  %100 = load i32, ptr %10, align 4, !tbaa !8
  %101 = zext i32 %100 to i64
  %102 = getelementptr inbounds nuw float, ptr %99, i64 %101
  %103 = load float, ptr %102, align 4, !tbaa !30
  %104 = load ptr, ptr %8, align 8, !tbaa !39
  %105 = getelementptr inbounds float, ptr %104, i64 8
  %106 = load float, ptr %105, align 4, !tbaa !30
  %107 = call float @llvm.fmuladd.f32(float %103, float %106, float %98)
  store float %107, ptr %16, align 4, !tbaa !30
  %108 = load float, ptr %14, align 4, !tbaa !30
  %109 = load ptr, ptr %12, align 8, !tbaa !39
  store float %108, ptr %109, align 4, !tbaa !30
  %110 = load float, ptr %15, align 4, !tbaa !30
  %111 = load ptr, ptr %12, align 8, !tbaa !39
  %112 = load i32, ptr %9, align 4, !tbaa !8
  %113 = zext i32 %112 to i64
  %114 = getelementptr inbounds nuw float, ptr %111, i64 %113
  store float %110, ptr %114, align 4, !tbaa !30
  %115 = load float, ptr %16, align 4, !tbaa !30
  %116 = load ptr, ptr %12, align 8, !tbaa !39
  %117 = load i32, ptr %10, align 4, !tbaa !8
  %118 = zext i32 %117 to i64
  %119 = getelementptr inbounds nuw float, ptr %116, i64 %118
  store float %115, ptr %119, align 4, !tbaa !30
  call void @llvm.lifetime.end.p0(i64 4, ptr %16) #3
  call void @llvm.lifetime.end.p0(i64 4, ptr %15) #3
  call void @llvm.lifetime.end.p0(i64 4, ptr %14) #3
  br label %120

120:                                              ; preds = %35
  %121 = load i32, ptr %13, align 4, !tbaa !8
  %122 = add i32 %121, 1
  store i32 %122, ptr %13, align 4, !tbaa !8
  %123 = load ptr, ptr %12, align 8, !tbaa !39
  %124 = getelementptr inbounds nuw float, ptr %123, i32 1
  store ptr %124, ptr %12, align 8, !tbaa !39
  %125 = load ptr, ptr %11, align 8, !tbaa !39
  %126 = getelementptr inbounds nuw float, ptr %125, i32 1
  store ptr %126, ptr %11, align 8, !tbaa !39
  br label %30, !llvm.loop !131

127:                                              ; preds = %34
  call void @llvm.lifetime.end.p0(i64 8, ptr %12) #3
  call void @llvm.lifetime.end.p0(i64 8, ptr %11) #3
  call void @llvm.lifetime.end.p0(i64 4, ptr %10) #3
  call void @llvm.lifetime.end.p0(i64 4, ptr %9) #3
  ret void
}

; Function Attrs: mustprogress uwtable
define available_externally noundef nonnull align 8 dereferenceable(8) ptr @_ZNSolsEPFRSoS_E(ptr noundef nonnull align 8 dereferenceable(8) %0, ptr noundef %1) #4 align 2 {
  %3 = alloca ptr, align 8
  %4 = alloca ptr, align 8
  store ptr %0, ptr %3, align 8, !tbaa !51
  store ptr %1, ptr %4, align 8, !tbaa !55
  %5 = load ptr, ptr %3, align 8
  %6 = load ptr, ptr %4, align 8, !tbaa !55
  %7 = call noundef nonnull align 8 dereferenceable(8) ptr %6(ptr noundef nonnull align 8 dereferenceable(8) %5)
  ret ptr %7
}

; Function Attrs: inlinehint mustprogress uwtable
define available_externally noundef nonnull align 8 dereferenceable(8) ptr @_ZStlsISt11char_traitsIcEERSt13basic_ostreamIcT_ES5_PKc(ptr noundef nonnull align 8 dereferenceable(8) %0, ptr noundef %1) #5 {
  %3 = alloca ptr, align 8
  %4 = alloca ptr, align 8
  store ptr %0, ptr %3, align 8, !tbaa !51
  store ptr %1, ptr %4, align 8, !tbaa !53
  %5 = load ptr, ptr %4, align 8, !tbaa !53
  %6 = icmp ne ptr %5, null
  br i1 %6, label %13, label %7

7:                                                ; preds = %2
  %8 = load ptr, ptr %3, align 8, !tbaa !51
  %9 = load ptr, ptr %8, align 8, !tbaa !10
  %10 = getelementptr i8, ptr %9, i64 -24
  %11 = load i64, ptr %10, align 8
  %12 = getelementptr inbounds i8, ptr %8, i64 %11
  call void @_ZNSt9basic_iosIcSt11char_traitsIcEE8setstateESt12_Ios_Iostate(ptr noundef nonnull align 8 dereferenceable(264) %12, i32 noundef 1)
  br label %19

13:                                               ; preds = %2
  %14 = load ptr, ptr %3, align 8, !tbaa !51
  %15 = load ptr, ptr %4, align 8, !tbaa !53
  %16 = load ptr, ptr %4, align 8, !tbaa !53
  %17 = call noundef i64 @_ZNSt11char_traitsIcE6lengthEPKc(ptr noundef %16)
  %18 = call noundef nonnull align 8 dereferenceable(8) ptr @_ZSt16__ostream_insertIcSt11char_traitsIcEERSt13basic_ostreamIT_T0_ES6_PKS3_l(ptr noundef nonnull align 8 dereferenceable(8) %14, ptr noundef %15, i64 noundef %17)
  br label %19

19:                                               ; preds = %13, %7
  %20 = load ptr, ptr %3, align 8, !tbaa !51
  ret ptr %20
}

; Function Attrs: inlinehint mustprogress nounwind uwtable
define linkonce_odr hidden noundef i64 @_ZNKSt8valarrayIfE4sizeEv(ptr noundef nonnull align 8 dereferenceable(16) %0) #7 comdat align 2 {
  %2 = alloca ptr, align 8
  store ptr %0, ptr %2, align 8, !tbaa !36
  %3 = load ptr, ptr %2, align 8
  %4 = getelementptr inbounds nuw %"class.std::valarray", ptr %3, i32 0, i32 0
  %5 = load i64, ptr %4, align 8, !tbaa !37
  ret i64 %5
}

; Function Attrs: mustprogress uwtable
define hidden noundef zeroext i1 @_ZN2cv11bioinspired11RetinaColor21applyLMS2LabTransformERSt8valarrayIfE(ptr noundef nonnull align 8 dereferenceable(349) %0, ptr noundef nonnull align 8 dereferenceable(16) %1) #4 align 2 {
  %3 = alloca i1, align 1
  %4 = alloca ptr, align 8
  %5 = alloca ptr, align 8
  %6 = alloca i8, align 1
  %7 = alloca i32, align 4
  store ptr %0, ptr %4, align 8, !tbaa !3
  store ptr %1, ptr %5, align 8, !tbaa !36
  %8 = load ptr, ptr %4, align 8
  call void @llvm.lifetime.start.p0(i64 1, ptr %6) #3
  store i8 1, ptr %6, align 1, !tbaa !60
  %9 = load ptr, ptr %5, align 8, !tbaa !36
  %10 = call noundef i64 @_ZNKSt8valarrayIfE4sizeEv(ptr noundef nonnull align 8 dereferenceable(16) %9)
  %11 = getelementptr inbounds nuw %"class.cv::bioinspired::RetinaColor", ptr %8, i32 0, i32 13
  %12 = call noundef i64 @_ZNKSt8valarrayIfE4sizeEv(ptr noundef nonnull align 8 dereferenceable(16) %11)
  %13 = icmp ne i64 %10, %12
  br i1 %13, label %14, label %17

14:                                               ; preds = %2
  %15 = call noundef nonnull align 8 dereferenceable(8) ptr @_ZStlsISt11char_traitsIcEERSt13basic_ostreamIcT_ES5_PKc(ptr noundef nonnull align 8 dereferenceable(8) @_ZSt4cerr, ptr noundef @.str.3)
  %16 = call noundef nonnull align 8 dereferenceable(8) ptr @_ZNSolsEPFRSoS_E(ptr noundef nonnull align 8 dereferenceable(8) %15, ptr noundef @_ZSt4endlIcSt11char_traitsIcEERSt13basic_ostreamIT_T0_ES6_)
  store i1 false, ptr %3, align 1
  store i32 1, ptr %7, align 4
  br label %22

17:                                               ; preds = %2
  %18 = getelementptr inbounds nuw %"class.cv::bioinspired::RetinaColor", ptr %8, i32 0, i32 13
  %19 = load ptr, ptr %5, align 8, !tbaa !36
  call void @_ZN2cv11bioinspired11RetinaColor31_applyImageColorSpaceConversionERKSt8valarrayIfERS3_PKf(ptr noundef nonnull align 8 dereferenceable(349) %8, ptr noundef nonnull align 8 dereferenceable(16) %18, ptr noundef nonnull align 8 dereferenceable(16) %19, ptr noundef @_ZN2cv11bioinspiredL9_LMStoLabE)
  %20 = load i8, ptr %6, align 1, !tbaa !60, !range !63, !noundef !64
  %21 = trunc i8 %20 to i1
  store i1 %21, ptr %3, align 1
  store i32 1, ptr %7, align 4
  br label %22

22:                                               ; preds = %17, %14
  call void @llvm.lifetime.end.p0(i64 1, ptr %6) #3
  %23 = load i1, ptr %3, align 1
  ret i1 %23
}